#include <math.h>
#include <stdio.h>
#include <stdlib.h>
#include <string.h>

void main()
{
	int a[100],m,n,i;
	scanf("%d %d",&n,&m);
	for(i=0;i<n;i++)
	{
		scanf("%d",a+i);
	}
	int temp,j;
	for(j=0;j<m;j++)
	{
		temp=*(a+n-1);
		for(i=n-1;i>=0;i--)
		{
			*(a+i)=*(a+i-1);
		}
		*a=temp;
	}
	for(i=0;i<n;i++)
	{
		if(i<n-1)
			printf("%d ",*(a+i));
		else printf("%d",*(a+i));
	}
}
